; Function Attrs: mustprogress uwtable
define hidden noundef nonnull align 8 dereferenceable(8) ptr @_ZlsRSoRK13mk_ismt2_func(ptr noundef nonnull returned align 8 dereferenceable(8) %out, ptr nocapture noundef nonnull readonly align 8 dereferenceable(16) %p) local_unnamed_addr #3 personality ptr @__gxx_personality_v0 {
invoke.cont:
  %env = alloca %class.smt2_pp_environment_dbg, align 8
  %r = alloca %class.obj_ref, align 8
  %len = alloca i32, align 4
  %pa = alloca %class.params_ref, align 8
  %m = getelementptr inbounds i8, ptr %p, i64 8
  %0 = load ptr, ptr %m, align 8
  call void @_ZN23smt2_pp_environment_dbgC2ER11ast_manager(ptr noundef nonnull align 8 dereferenceable(640) %env, ptr noundef nonnull align 8 dereferenceable(976) %0)
  %1 = load ptr, ptr %m, align 8
  %m_format_manager.i.i.i = getelementptr inbounds i8, ptr %1, i64 928
  %2 = load ptr, ptr %m_format_manager.i.i.i, align 8
  %cmp.i.i.i = icmp eq ptr %2, null
  %cond-lvalue.i.i = select i1 %cmp.i.i.i, ptr %1, ptr %2
  store ptr null, ptr %r, align 8
  %m_manager.i = getelementptr inbounds i8, ptr %r, i64 8
  store ptr %cond-lvalue.i.i, ptr %m_manager.i, align 8
  store i32 0, ptr %len, align 4
  %3 = load ptr, ptr %p, align 8
  %call5 = invoke noundef ptr @_ZN19smt2_pp_environment8pp_fdeclEP9func_declRj(ptr noundef nonnull align 8 dereferenceable(56) %env, ptr noundef %3, ptr noundef nonnull align 4 dereferenceable(4) %len)
          to label %invoke.cont4 unwind label %lpad3

invoke.cont4:                                     ; preds = %invoke.cont
  %tobool.not.i = icmp eq ptr %call5, null
  br i1 %tobool.not.i, label %invoke.cont6, label %_ZN11ast_manager7inc_refEP3ast.exit.i

_ZN11ast_manager7inc_refEP3ast.exit.i:            ; preds = %invoke.cont4
  %m_ref_count.i.i.i = getelementptr inbounds i8, ptr %call5, i64 8
  %4 = load i32, ptr %m_ref_count.i.i.i, align 4
  %inc.i.i.i = add i32 %4, 1
  store i32 %inc.i.i.i, ptr %m_ref_count.i.i.i, align 4
  br label %invoke.cont6

invoke.cont6:                                     ; preds = %invoke.cont4, %_ZN11ast_manager7inc_refEP3ast.exit.i
  store ptr %call5, ptr %r, align 8
  store ptr null, ptr %pa, align 8
  %5 = load ptr, ptr %m, align 8
  invoke void @_Z2ppRSoP3appR11ast_managerRK10params_ref(ptr noundef nonnull align 8 dereferenceable(8) %out, ptr noundef %call5, ptr noundef nonnull align 8 dereferenceable(976) %5, ptr noundef nonnull align 8 dereferenceable(8) %pa)
          to label %invoke.cont13 unwind label %lpad9

invoke.cont13:                                    ; preds = %invoke.cont6
  call void @_ZN10params_refD1Ev(ptr noundef nonnull align 8 dereferenceable(8) %pa) #19
  br i1 %tobool.not.i, label %_ZN7obj_refI3app11ast_managerED2Ev.exit, label %if.then.i.i.i8

if.then.i.i.i8:                                   ; preds = %invoke.cont13
  %m_ref_count.i.i.i.i10 = getelementptr inbounds i8, ptr %call5, i64 8
  %6 = load i32, ptr %m_ref_count.i.i.i.i10, align 4
  %dec.i.i.i.i11 = add i32 %6, -1
  store i32 %dec.i.i.i.i11, ptr %m_ref_count.i.i.i.i10, align 4
  %cmp.i.i.i12 = icmp eq i32 %dec.i.i.i.i11, 0
  br i1 %cmp.i.i.i12, label %if.then2.i.i.i13, label %_ZN7obj_refI3app11ast_managerED2Ev.exit

if.then2.i.i.i13:                                 ; preds = %if.then.i.i.i8
  invoke void @_ZN11ast_manager11delete_nodeEP3ast(ptr noundef nonnull align 8 dereferenceable(976) %cond-lvalue.i.i, ptr noundef nonnull %call5)
          to label %_ZN7obj_refI3app11ast_managerED2Ev.exit unwind label %terminate.lpad.i

terminate.lpad.i:                                 ; preds = %if.then2.i.i.i13
  %7 = landingpad { ptr, i32 }
          catch ptr null
  %8 = extractvalue { ptr, i32 } %7, 0
  call void @__clang_call_terminate(ptr %8) #22
  unreachable

_ZN7obj_refI3app11ast_managerED2Ev.exit:          ; preds = %invoke.cont13, %if.then.i.i.i8, %if.then2.i.i.i13
  call void @_ZN23smt2_pp_environment_dbgD2Ev(ptr noundef nonnull align 8 dereferenceable(640) %env) #19
  ret ptr %out

lpad3:                                            ; preds = %invoke.cont
  %9 = landingpad { ptr, i32 }
          cleanup
  br label %ehcleanup

lpad9:                                            ; preds = %invoke.cont6
  %10 = landingpad { ptr, i32 }
          cleanup
  call void @_ZN10params_refD1Ev(ptr noundef nonnull align 8 dereferenceable(8) %pa) #19
  br label %ehcleanup

ehcleanup:                                        ; preds = %lpad9, %lpad3
  %.pn = phi { ptr, i32 } [ %10, %lpad9 ], [ %9, %lpad3 ]
  call void @_ZN7obj_refI3app11ast_managerED2Ev(ptr noundef nonnull align 8 dereferenceable(16) %r) #19
  call void @_ZN23smt2_pp_environment_dbgD2Ev(ptr noundef nonnull align 8 dereferenceable(640) %env) #19
  resume { ptr, i32 } %.pn
}